; Function Attrs: mustprogress nounwind uwtable
define internal noundef i32 @_ZN4node12_GLOBAL__N_16Parser5ProxyIMS1_FivEXadL_ZNS1_19on_message_completeEvEEE3RawEP18llhttp__internal_s(ptr noundef %p) #3 align 2 {
entry:
  %scope.i = alloca %"class.v8::HandleScope", align 8
  %callback_scope.i = alloca %"class.node::InternalCallbackScope", align 8
  %0 = ptrtoint ptr %p to i64
  %sub.i.i = add i64 %0, -80
  %1 = inttoptr i64 %sub.i.i to ptr
  call void @llvm.lifetime.start.p0(i64 24, ptr nonnull %scope.i)
  call void @llvm.lifetime.start.p0(i64 40, ptr nonnull %callback_scope.i)
  %realm_.i.i = getelementptr inbounds i8, ptr %1, i64 16
  %2 = load ptr, ptr %realm_.i.i, align 8
  %env_.i.i.i = getelementptr inbounds i8, ptr %2, i64 176
  %3 = load ptr, ptr %env_.i.i.i, align 8
  %isolate_.i.i = getelementptr inbounds i8, ptr %3, i64 88
  %4 = load ptr, ptr %isolate_.i.i, align 8
  call void @_ZN2v811HandleScopeC1EPNS_7IsolateE(ptr noundef nonnull align 8 dereferenceable(24) %scope.i, ptr noundef %4) #20
  %connectionsList_.i = getelementptr inbounds i8, ptr %1, i64 1832
  %5 = load ptr, ptr %connectionsList_.i, align 8
  %cmp.not.i = icmp eq ptr %5, null
  br i1 %cmp.not.i, label %if.end.thread.i, label %if.end.i

if.end.thread.i:                                  ; preds = %entry
  %last_message_start_24.i = getelementptr inbounds i8, ptr %1, i64 1824
  store i64 0, ptr %last_message_start_24.i, align 8
  br label %if.end9.i

if.end.i:                                         ; preds = %entry
  %all_connections_.i.i = getelementptr inbounds i8, ptr %5, i64 32
  call fastcc void @_ZNSt3setIPN4node12_GLOBAL__N_16ParserENS1_16ParserComparatorESaIS3_EE5eraseERKS3_(ptr noundef nonnull align 8 dereferenceable(48) %all_connections_.i.i, ptr nonnull %1)
  %6 = load ptr, ptr %connectionsList_.i, align 8
  %active_connections_.i.i = getelementptr inbounds i8, ptr %6, i64 80
  call fastcc void @_ZNSt3setIPN4node12_GLOBAL__N_16ParserENS1_16ParserComparatorESaIS3_EE5eraseERKS3_(ptr noundef nonnull align 8 dereferenceable(48) %active_connections_.i.i, ptr nonnull %1)
  %.pr.i = load ptr, ptr %connectionsList_.i, align 8
  %last_message_start_.i = getelementptr inbounds i8, ptr %1, i64 1824
  store i64 0, ptr %last_message_start_.i, align 8
  %cmp6.not.i = icmp eq ptr %.pr.i, null
  br i1 %cmp6.not.i, label %if.end9.i, label %if.then7.i

if.then7.i:                                       ; preds = %if.end.i
  %all_connections_.i3.i = getelementptr inbounds i8, ptr %.pr.i, i64 32
  call fastcc void @_ZNSt3setIPN4node12_GLOBAL__N_16ParserENS1_16ParserComparatorESaIS3_EE6insertERKS3_(ptr noundef nonnull align 8 dereferenceable(48) %all_connections_.i3.i, ptr nonnull %1)
  br label %if.end9.i

if.end9.i:                                        ; preds = %if.then7.i, %if.end.i, %if.end.thread.i
  %num_fields_.i = getelementptr inbounds i8, ptr %1, i64 1760
  %7 = load i64, ptr %num_fields_.i, align 8
  %tobool.not.i = icmp eq i64 %7, 0
  br i1 %tobool.not.i, label %if.end11.i, label %if.then10.i

if.then10.i:                                      ; preds = %if.end9.i
  call fastcc void @_ZN4node12_GLOBAL__N_16Parser5FlushEv(ptr noundef nonnull align 8 dereferenceable(1848) %1)
  br label %if.end11.i

if.end11.i:                                       ; preds = %if.then10.i, %if.end9.i
  %8 = load ptr, ptr %realm_.i.i, align 8
  %env_.i.i.i.i = getelementptr inbounds i8, ptr %8, i64 176
  %9 = load ptr, ptr %env_.i.i.i.i, align 8
  %isolate_.i.i.i = getelementptr inbounds i8, ptr %9, i64 88
  %10 = load ptr, ptr %isolate_.i.i.i, align 8
  %persistent_handle_.i.i = getelementptr inbounds i8, ptr %1, i64 8
  %11 = load ptr, ptr %persistent_handle_.i.i, align 8
  %cmp.i.i.i.i.i = icmp eq ptr %11, null
  br i1 %cmp.i.i.i.i.i, label %_ZNK4node10BaseObject6objectEv.exit.i, label %if.end.i.i.i.i

if.end.i.i.i.i:                                   ; preds = %if.end11.i
  %add.ptr.i.i.i.i = getelementptr inbounds i8, ptr %11, i64 11
  %12 = load i8, ptr %add.ptr.i.i.i.i, align 1
  %13 = and i8 %12, 3
  %cmp.i.i.i.i = icmp eq i8 %13, 2
  br i1 %cmp.i.i.i.i, label %_ZN4node17PersistentToLocal4WeakIN2v86ObjectEEENS2_5LocalIT_EEPNS2_7IsolateERKNS2_14PersistentBaseIS5_EE.exit.i.i.i, label %_ZNK4node10BaseObject6objectEv.exit.i

_ZN4node17PersistentToLocal4WeakIN2v86ObjectEEENS2_5LocalIT_EEPNS2_7IsolateERKNS2_14PersistentBaseIS5_EE.exit.i.i.i: ; preds = %if.end.i.i.i.i
  %14 = load i64, ptr %11, align 8
  %call.i.i.i.i.i = call noundef ptr @_ZN2v811HandleScope12CreateHandleEPNS_8internal7IsolateEm(ptr noundef %10, i64 noundef %14) #20
  %.pre.i = load ptr, ptr %realm_.i.i, align 8
  %env_.i.i5.phi.trans.insert.i = getelementptr inbounds i8, ptr %.pre.i, i64 176
  %.pre26.i = load ptr, ptr %env_.i.i5.phi.trans.insert.i, align 8
  br label %_ZNK4node10BaseObject6objectEv.exit.i

_ZNK4node10BaseObject6objectEv.exit.i:            ; preds = %_ZN4node17PersistentToLocal4WeakIN2v86ObjectEEENS2_5LocalIT_EEPNS2_7IsolateERKNS2_14PersistentBaseIS5_EE.exit.i.i.i, %if.end.i.i.i.i, %if.end11.i
  %15 = phi ptr [ %.pre26.i, %_ZN4node17PersistentToLocal4WeakIN2v86ObjectEEENS2_5LocalIT_EEPNS2_7IsolateERKNS2_14PersistentBaseIS5_EE.exit.i.i.i ], [ %9, %if.end11.i ], [ %9, %if.end.i.i.i.i ]
  %retval.sroa.0.0.i.i.i = phi ptr [ %call.i.i.i.i.i, %_ZN4node17PersistentToLocal4WeakIN2v86ObjectEEENS2_5LocalIT_EEPNS2_7IsolateERKNS2_14PersistentBaseIS5_EE.exit.i.i.i ], [ null, %if.end11.i ], [ %11, %if.end.i.i.i.i ]
  %principal_realm_.i.i.i = getelementptr inbounds i8, ptr %15, i64 2728
  %16 = load ptr, ptr %principal_realm_.i.i.i, align 8
  %vtable.i.i = load ptr, ptr %16, align 8
  %vfn.i.i = getelementptr inbounds i8, ptr %vtable.i.i, i64 64
  %17 = load ptr, ptr %vfn.i.i, align 8
  %call2.i.i = call ptr %17(ptr noundef nonnull align 8 dereferenceable(872) %16) #20
  %call24.i = call ptr @_ZN2v86Object3GetENS_5LocalINS_7ContextEEEj(ptr noundef nonnull align 1 dereferenceable(1) %retval.sroa.0.0.i.i.i, ptr %call2.i.i, i32 noundef 4) #20
  %cmp.i.i.i = icmp eq ptr %call24.i, null
  br i1 %cmp.i.i.i, label %if.then.i.i, label %_ZN2v810MaybeLocalINS_5ValueEE14ToLocalCheckedEv.exit.i

if.then.i.i:                                      ; preds = %_ZNK4node10BaseObject6objectEv.exit.i
  call void @_ZN2v812api_internal12ToLocalEmptyEv() #20
  br label %_ZN2v810MaybeLocalINS_5ValueEE14ToLocalCheckedEv.exit.i

_ZN2v810MaybeLocalINS_5ValueEE14ToLocalCheckedEv.exit.i: ; preds = %if.then.i.i, %_ZNK4node10BaseObject6objectEv.exit.i
  %call34.i = call noundef zeroext i1 @_ZNK2v85Value10IsFunctionEv(ptr noundef nonnull align 1 dereferenceable(1) %call24.i) #20
  br i1 %call34.i, label %if.end36.i, label %if.then

if.end36.i:                                       ; preds = %_ZN2v810MaybeLocalINS_5ValueEE14ToLocalCheckedEv.exit.i
  call void @_ZN4node21InternalCallbackScopeC1EPNS_9AsyncWrapEi(ptr noundef nonnull align 8 dereferenceable(37) %callback_scope.i, ptr noundef nonnull %1, i32 noundef 2) #20
  %18 = load ptr, ptr %realm_.i.i, align 8
  %env_.i.i7.i = getelementptr inbounds i8, ptr %18, i64 176
  %19 = load ptr, ptr %env_.i.i7.i, align 8
  %principal_realm_.i.i8.i = getelementptr inbounds i8, ptr %19, i64 2728
  %20 = load ptr, ptr %principal_realm_.i.i8.i, align 8
  %vtable.i9.i = load ptr, ptr %20, align 8
  %vfn.i10.i = getelementptr inbounds i8, ptr %vtable.i9.i, i64 64
  %21 = load ptr, ptr %vfn.i10.i, align 8
  %call2.i11.i = call ptr %21(ptr noundef nonnull align 8 dereferenceable(872) %20) #20
  %22 = load ptr, ptr %realm_.i.i, align 8
  %env_.i.i.i13.i = getelementptr inbounds i8, ptr %22, i64 176
  %23 = load ptr, ptr %env_.i.i.i13.i, align 8
  %isolate_.i.i14.i = getelementptr inbounds i8, ptr %23, i64 88
  %24 = load ptr, ptr %isolate_.i.i14.i, align 8
  %25 = load ptr, ptr %persistent_handle_.i.i, align 8
  %cmp.i.i.i.i16.i = icmp eq ptr %25, null
  br i1 %cmp.i.i.i.i16.i, label %_ZNK4node10BaseObject6objectEv.exit23.i, label %if.end.i.i.i17.i

if.end.i.i.i17.i:                                 ; preds = %if.end36.i
  %add.ptr.i.i.i18.i = getelementptr inbounds i8, ptr %25, i64 11
  %26 = load i8, ptr %add.ptr.i.i.i18.i, align 1
  %27 = and i8 %26, 3
  %cmp.i.i.i19.i = icmp eq i8 %27, 2
  br i1 %cmp.i.i.i19.i, label %_ZN4node17PersistentToLocal4WeakIN2v86ObjectEEENS2_5LocalIT_EEPNS2_7IsolateERKNS2_14PersistentBaseIS5_EE.exit.i.i21.i, label %_ZNK4node10BaseObject6objectEv.exit23.i

_ZN4node17PersistentToLocal4WeakIN2v86ObjectEEENS2_5LocalIT_EEPNS2_7IsolateERKNS2_14PersistentBaseIS5_EE.exit.i.i21.i: ; preds = %if.end.i.i.i17.i
  %28 = load i64, ptr %25, align 8
  %call.i.i.i.i22.i = call noundef ptr @_ZN2v811HandleScope12CreateHandleEPNS_8internal7IsolateEm(ptr noundef %24, i64 noundef %28) #20
  br label %_ZNK4node10BaseObject6objectEv.exit23.i

_ZNK4node10BaseObject6objectEv.exit23.i:          ; preds = %_ZN4node17PersistentToLocal4WeakIN2v86ObjectEEENS2_5LocalIT_EEPNS2_7IsolateERKNS2_14PersistentBaseIS5_EE.exit.i.i21.i, %if.end.i.i.i17.i, %if.end36.i
  %retval.sroa.0.0.i.i20.i = phi ptr [ %call.i.i.i.i22.i, %_ZN4node17PersistentToLocal4WeakIN2v86ObjectEEENS2_5LocalIT_EEPNS2_7IsolateERKNS2_14PersistentBaseIS5_EE.exit.i.i21.i ], [ null, %if.end36.i ], [ %25, %if.end.i.i.i17.i ]
  %call65.i = call ptr @_ZN2v88Function4CallENS_5LocalINS_7ContextEEENS1_INS_5ValueEEEiPS5_(ptr noundef nonnull align 1 dereferenceable(1) %call24.i, ptr %call2.i11.i, ptr %retval.sroa.0.0.i.i20.i, i32 noundef 0, ptr noundef null) #20
  %cmp.i.i101.i = icmp eq ptr %call65.i, null
  br i1 %cmp.i.i101.i, label %_ZN4node12_GLOBAL__N_16Parser19on_message_completeEv.exit, label %if.end75.critedge.i

if.end75.critedge.i:                              ; preds = %_ZNK4node10BaseObject6objectEv.exit23.i
  call void @_ZN4node21InternalCallbackScopeD1Ev(ptr noundef nonnull align 8 dereferenceable(37) %callback_scope.i) #20
  br label %if.then

_ZN4node12_GLOBAL__N_16Parser19on_message_completeEv.exit: ; preds = %_ZNK4node10BaseObject6objectEv.exit23.i
  %failed_.i.i = getelementptr inbounds i8, ptr %callback_scope.i, i64 34
  store i8 1, ptr %failed_.i.i, align 2
  call void @_ZN4node21InternalCallbackScopeD1Ev(ptr noundef nonnull align 8 dereferenceable(37) %callback_scope.i) #20
  %got_exception_.i = getelementptr inbounds i8, ptr %1, i64 1777
  store i8 1, ptr %got_exception_.i, align 1
  call void @_ZN2v811HandleScopeD1Ev(ptr noundef nonnull align 8 dereferenceable(24) %scope.i) #20
  call void @llvm.lifetime.end.p0(i64 24, ptr nonnull %scope.i)
  call void @llvm.lifetime.end.p0(i64 40, ptr nonnull %callback_scope.i)
  br label %if.end

if.then:                                          ; preds = %_ZN2v810MaybeLocalINS_5ValueEE14ToLocalCheckedEv.exit.i, %if.end75.critedge.i
  call void @_ZN2v811HandleScopeD1Ev(ptr noundef nonnull align 8 dereferenceable(24) %scope.i) #20
  call void @llvm.lifetime.end.p0(i64 24, ptr nonnull %scope.i)
  call void @llvm.lifetime.end.p0(i64 40, ptr nonnull %callback_scope.i)
  %pending_pause_.i = getelementptr inbounds i8, ptr %1, i64 1801
  %29 = load i8, ptr %pending_pause_.i, align 1
  %30 = and i8 %29, 1
  %tobool.not.i3 = icmp eq i8 %30, 0
  br i1 %tobool.not.i3, label %if.end, label %if.end.i4

if.end.i4:                                        ; preds = %if.then
  store i8 0, ptr %pending_pause_.i, align 1
  %parser_.i = getelementptr inbounds i8, ptr %1, i64 80
  call void @llhttp_set_error_reason(ptr noundef nonnull %parser_.i, ptr noundef nonnull @.str.123) #20
  br label %if.end

if.end:                                           ; preds = %if.end.i4, %if.then, %_ZN4node12_GLOBAL__N_16Parser19on_message_completeEv.exit
  %rv.0 = phi i32 [ -1, %_ZN4node12_GLOBAL__N_16Parser19on_message_completeEv.exit ], [ 21, %if.end.i4 ], [ 0, %if.then ]
  ret i32 %rv.0
}